target datalayout = "e-m:e-p270:32:32-p271:32:32-p272:64:64-i64:64-i128:128-f80:128-n8:16:32:64-S128"
target triple = "x86_64-pc-linux-gnu"

%struct.wtapng_block_s = type { i32, i32, ptr, ptr, ptr }

; Function Attrs: nounwind uwtable
define void @pcapng_process_uint8_option(ptr noundef %0, i16 noundef zeroext %1, i16 noundef zeroext %2, ptr noundef %3) #0 {
  %5 = alloca ptr, align 8
  %6 = alloca i16, align 2
  %7 = alloca i16, align 2
  %8 = alloca ptr, align 8
  store ptr %0, ptr %5, align 8
  store i16 %1, ptr %6, align 2
  store i16 %2, ptr %7, align 2
  store ptr %3, ptr %8, align 8
  %9 = load i16, ptr %7, align 2
  %10 = zext i16 %9 to i32
  %11 = icmp eq i32 %10, 1
  br i1 %11, label %12, label %22

12:                                               ; preds = %4
  %13 = load ptr, ptr %5, align 8
  %14 = getelementptr inbounds %struct.wtapng_block_s, ptr %13, i32 0, i32 2
  %15 = load ptr, ptr %14, align 8
  %16 = load i16, ptr %6, align 2
  %17 = zext i16 %16 to i32
  %18 = load ptr, ptr %8, align 8
  %19 = getelementptr i8, ptr %18, i64 0
  %20 = load i8, ptr %19, align 1
  %21 = call i32 @wtap_block_add_uint8_option(ptr noundef %15, i32 noundef %17, i8 noundef zeroext %20)
  br label %22

22:                                               ; preds = %12, %4
  ret void
}