; Function Attrs: nounwind uwtable
define void @pcapng_process_uint8_option(ptr noundef readonly captures(none) %0, i16 noundef zeroext %1, i16 noundef zeroext %2, ptr noundef readonly captures(none) %3) local_unnamed_addr #0 {
  %5 = icmp eq i16 %2, 1
  br i1 %5, label %6, label %12

6:                                                ; preds = %4
  %7 = getelementptr inbounds nuw i8, ptr %0, i64 8
  %8 = load ptr, ptr %7, align 8
  %9 = zext i16 %1 to i32
  %10 = load i8, ptr %3, align 1
  %11 = tail call i32 @wtap_block_add_uint8_option(ptr noundef %8, i32 noundef %9, i8 noundef zeroext %10) #16
  br label %12

12:                                               ; preds = %6, %4
  ret void
}